target datalayout = "e-m:e-p270:32:32-p271:32:32-p272:64:64-i64:64-i128:128-f80:128-n8:16:32:64-S128"
target triple = "x86_64-pc-linux-gnu"

%"class.zmq::socket_poller_t" = type { i32, ptr, %"class.std::vector", i8, i8, i32, ptr }
%"class.std::vector" = type { %"struct.std::_Vector_base" }
%"struct.std::_Vector_base" = type { %"struct.std::_Vector_base<zmq::socket_poller_t::item_t, std::allocator<zmq::socket_poller_t::item_t>>::_Vector_impl" }
%"struct.std::_Vector_base<zmq::socket_poller_t::item_t, std::allocator<zmq::socket_poller_t::item_t>>::_Vector_impl" = type { %"struct.std::_Vector_base<zmq::socket_poller_t::item_t, std::allocator<zmq::socket_poller_t::item_t>>::_Vector_impl_data" }
%"struct.std::_Vector_base<zmq::socket_poller_t::item_t, std::allocator<zmq::socket_poller_t::item_t>>::_Vector_impl_data" = type { ptr, ptr, ptr }

; Function Attrs: mustprogress nounwind uwtable
define linkonce_odr void @_ZNSt15__new_allocatorIN3zmq15socket_poller_t6item_tEE10deallocateEPS2_m(ptr noundef nonnull align 1 dereferenceable(1) %0, ptr noundef %1, i64 noundef %2) #1 comdat align 2 {
  %4 = alloca ptr, align 8
  %5 = alloca ptr, align 8
  %6 = alloca i64, align 8
  store ptr %0, ptr %4, align 8, !tbaa !100
  store ptr %1, ptr %5, align 8, !tbaa !51
  store i64 %2, ptr %6, align 8, !tbaa !39
  %7 = load ptr, ptr %5, align 8, !tbaa !51
  call void @_ZdlPv(ptr noundef %7) #21
  ret void
}

; Function Attrs: mustprogress nounwind uwtable
define linkonce_odr void @_ZNSt15__new_allocatorIN3zmq15socket_poller_t6item_tEEC2Ev(ptr noundef nonnull align 1 dereferenceable(1) %0) unnamed_addr #1 comdat align 2 {
  %2 = alloca ptr, align 8
  store ptr %0, ptr %2, align 8, !tbaa !100
  ret void
}

; Function Attrs: mustprogress uwtable
define linkonce_odr void @_ZNSt16allocator_traitsISaIN3zmq15socket_poller_t6item_tEEE10deallocateERS3_PS2_m(ptr noundef nonnull align 1 dereferenceable(1) %0, ptr noundef %1, i64 noundef %2) #0 comdat align 2 {
  %4 = alloca ptr, align 8
  %5 = alloca ptr, align 8
  %6 = alloca i64, align 8
  store ptr %0, ptr %4, align 8, !tbaa !96
  store ptr %1, ptr %5, align 8, !tbaa !51
  store i64 %2, ptr %6, align 8, !tbaa !39
  %7 = load ptr, ptr %4, align 8, !tbaa !96
  %8 = load ptr, ptr %5, align 8, !tbaa !51
  %9 = load i64, ptr %6, align 8, !tbaa !39
  call void @_ZNSt15__new_allocatorIN3zmq15socket_poller_t6item_tEE10deallocateEPS2_m(ptr noundef nonnull align 1 dereferenceable(1) %7, ptr noundef %8, i64 noundef %9)
  ret void
}

; Function Attrs: mustprogress nounwind uwtable
define linkonce_odr void @_ZNSt12_Destroy_auxILb1EE9__destroyIPN3zmq15socket_poller_t6item_tEEEvT_S6_(ptr noundef %0, ptr noundef %1) #1 comdat align 2 {
  %3 = alloca ptr, align 8
  %4 = alloca ptr, align 8
  store ptr %0, ptr %3, align 8, !tbaa !51
  store ptr %1, ptr %4, align 8, !tbaa !51
  ret void
}

; Function Attrs: mustprogress nounwind uwtable
define linkonce_odr void @_ZNSt12_Vector_baseIN3zmq15socket_poller_t6item_tESaIS2_EE17_Vector_impl_dataC2Ev(ptr noundef nonnull align 8 dereferenceable(24) %0) unnamed_addr #1 comdat align 2 {
  %2 = alloca ptr, align 8
  store ptr %0, ptr %2, align 8, !tbaa !98
  %3 = load ptr, ptr %2, align 8
  %4 = getelementptr inbounds nuw %"struct.std::_Vector_base<zmq::socket_poller_t::item_t, std::allocator<zmq::socket_poller_t::item_t>>::_Vector_impl_data", ptr %3, i32 0, i32 0
  store ptr null, ptr %4, align 8, !tbaa !46
  %5 = getelementptr inbounds nuw %"struct.std::_Vector_base<zmq::socket_poller_t::item_t, std::allocator<zmq::socket_poller_t::item_t>>::_Vector_impl_data", ptr %3, i32 0, i32 1
  store ptr null, ptr %5, align 8, !tbaa !47
  %6 = getelementptr inbounds nuw %"struct.std::_Vector_base<zmq::socket_poller_t::item_t, std::allocator<zmq::socket_poller_t::item_t>>::_Vector_impl_data", ptr %3, i32 0, i32 2
  store ptr null, ptr %6, align 8, !tbaa !65
  ret void
}

; Function Attrs: mustprogress nounwind uwtable
define linkonce_odr void @_ZNSaIN3zmq15socket_poller_t6item_tEEC2Ev(ptr noundef nonnull align 1 dereferenceable(1) %0) unnamed_addr #1 comdat align 2 {
  %2 = alloca ptr, align 8
  store ptr %0, ptr %2, align 8, !tbaa !96
  %3 = load ptr, ptr %2, align 8
  call void @_ZNSt15__new_allocatorIN3zmq15socket_poller_t6item_tEEC2Ev(ptr noundef nonnull align 1 dereferenceable(1) %3) #17
  ret void
}

; Function Attrs: mustprogress nounwind uwtable
define linkonce_odr void @_ZNSt15__new_allocatorIN3zmq15socket_poller_t6item_tEED2Ev(ptr noundef nonnull align 1 dereferenceable(1) %0) unnamed_addr #1 comdat align 2 {
  %2 = alloca ptr, align 8
  store ptr %0, ptr %2, align 8, !tbaa !100
  ret void
}

; Function Attrs: mustprogress uwtable
define linkonce_odr void @_ZNSt12_Vector_baseIN3zmq15socket_poller_t6item_tESaIS2_EE13_M_deallocateEPS2_m(ptr noundef nonnull align 8 dereferenceable(24) %0, ptr noundef %1, i64 noundef %2) #0 comdat align 2 {
  %4 = alloca ptr, align 8
  %5 = alloca ptr, align 8
  %6 = alloca i64, align 8
  store ptr %0, ptr %4, align 8, !tbaa !92
  store ptr %1, ptr %5, align 8, !tbaa !51
  store i64 %2, ptr %6, align 8, !tbaa !39
  %7 = load ptr, ptr %4, align 8
  %8 = load ptr, ptr %5, align 8, !tbaa !51
  %9 = icmp ne ptr %8, null
  br i1 %9, label %10, label %14

10:                                               ; preds = %3
  %11 = getelementptr inbounds nuw %"struct.std::_Vector_base", ptr %7, i32 0, i32 0
  %12 = load ptr, ptr %5, align 8, !tbaa !51
  %13 = load i64, ptr %6, align 8, !tbaa !39
  call void @_ZNSt16allocator_traitsISaIN3zmq15socket_poller_t6item_tEEE10deallocateERS3_PS2_m(ptr noundef nonnull align 1 dereferenceable(1) %11, ptr noundef %12, i64 noundef %13)
  br label %14

14:                                               ; preds = %10, %3
  ret void
}

; Function Attrs: inlinehint mustprogress uwtable
define linkonce_odr void @_ZSt8_DestroyIPN3zmq15socket_poller_t6item_tEEvT_S4_(ptr noundef %0, ptr noundef %1) #13 comdat {
  %3 = alloca ptr, align 8
  %4 = alloca ptr, align 8
  store ptr %0, ptr %3, align 8, !tbaa !51
  store ptr %1, ptr %4, align 8, !tbaa !51
  %5 = load ptr, ptr %3, align 8, !tbaa !51
  %6 = load ptr, ptr %4, align 8, !tbaa !51
  call void @_ZNSt12_Destroy_auxILb1EE9__destroyIPN3zmq15socket_poller_t6item_tEEEvT_S6_(ptr noundef %5, ptr noundef %6)
  ret void
}

; Function Attrs: mustprogress nounwind uwtable
define linkonce_odr void @_ZNSt12_Vector_baseIN3zmq15socket_poller_t6item_tESaIS2_EE12_Vector_implC2Ev(ptr noundef nonnull align 8 dereferenceable(24) %0) unnamed_addr #1 comdat align 2 {
  %2 = alloca ptr, align 8
  store ptr %0, ptr %2, align 8, !tbaa !94
  %3 = load ptr, ptr %2, align 8
  call void @_ZNSaIN3zmq15socket_poller_t6item_tEEC2Ev(ptr noundef nonnull align 1 dereferenceable(1) %3) #17
  call void @_ZNSt12_Vector_baseIN3zmq15socket_poller_t6item_tESaIS2_EE17_Vector_impl_dataC2Ev(ptr noundef nonnull align 8 dereferenceable(24) %3) #17
  ret void
}

; Function Attrs: noinline noreturn nounwind uwtable
define linkonce_odr hidden void @__clang_call_terminate(ptr noundef %0) #5 comdat {
  %2 = call ptr @__cxa_begin_catch(ptr %0) #17
  call void @_ZSt9terminatev() #20
  unreachable
}

; Function Attrs: mustprogress nounwind uwtable
define linkonce_odr void @_ZNSt12_Vector_baseIN3zmq15socket_poller_t6item_tESaIS2_EED2Ev(ptr noundef nonnull align 8 dereferenceable(24) %0) unnamed_addr #1 comdat align 2 personality ptr @__gxx_personality_v0 {
  %2 = alloca ptr, align 8
  store ptr %0, ptr %2, align 8, !tbaa !92
  %3 = load ptr, ptr %2, align 8
  %4 = getelementptr inbounds nuw %"struct.std::_Vector_base", ptr %3, i32 0, i32 0
  %5 = getelementptr inbounds nuw %"struct.std::_Vector_base<zmq::socket_poller_t::item_t, std::allocator<zmq::socket_poller_t::item_t>>::_Vector_impl_data", ptr %4, i32 0, i32 0
  %6 = load ptr, ptr %5, align 8, !tbaa !46
  %7 = getelementptr inbounds nuw %"struct.std::_Vector_base", ptr %3, i32 0, i32 0
  %8 = getelementptr inbounds nuw %"struct.std::_Vector_base<zmq::socket_poller_t::item_t, std::allocator<zmq::socket_poller_t::item_t>>::_Vector_impl_data", ptr %7, i32 0, i32 2
  %9 = load ptr, ptr %8, align 8, !tbaa !65
  %10 = getelementptr inbounds nuw %"struct.std::_Vector_base", ptr %3, i32 0, i32 0
  %11 = getelementptr inbounds nuw %"struct.std::_Vector_base<zmq::socket_poller_t::item_t, std::allocator<zmq::socket_poller_t::item_t>>::_Vector_impl_data", ptr %10, i32 0, i32 0
  %12 = load ptr, ptr %11, align 8, !tbaa !46
  %13 = ptrtoint ptr %9 to i64
  %14 = ptrtoint ptr %12 to i64
  %15 = sub i64 %13, %14
  %16 = sdiv exact i64 %15, 32
  invoke void @_ZNSt12_Vector_baseIN3zmq15socket_poller_t6item_tESaIS2_EE13_M_deallocateEPS2_m(ptr noundef nonnull align 8 dereferenceable(24) %3, ptr noundef %6, i64 noundef %16)
          to label %17 unwind label %19

17:                                               ; preds = %1
  %18 = getelementptr inbounds nuw %"struct.std::_Vector_base", ptr %3, i32 0, i32 0
  call void @_ZNSt15__new_allocatorIN3zmq15socket_poller_t6item_tEED2Ev(ptr noundef nonnull align 8 dereferenceable(24) %18) #17
  ret void

19:                                               ; preds = %1
  %20 = landingpad { ptr, i32 }
          catch ptr null
  %21 = extractvalue { ptr, i32 } %20, 0
  call void @__clang_call_terminate(ptr %21) #20
  unreachable
}

; Function Attrs: inlinehint mustprogress uwtable
define linkonce_odr void @_ZSt8_DestroyIPN3zmq15socket_poller_t6item_tES2_EvT_S4_RSaIT0_E(ptr noundef %0, ptr noundef %1, ptr noundef nonnull align 1 dereferenceable(1) %2) #13 comdat {
  %4 = alloca ptr, align 8
  %5 = alloca ptr, align 8
  %6 = alloca ptr, align 8
  store ptr %0, ptr %4, align 8, !tbaa !51
  store ptr %1, ptr %5, align 8, !tbaa !51
  store ptr %2, ptr %6, align 8, !tbaa !96
  %7 = load ptr, ptr %4, align 8, !tbaa !51
  %8 = load ptr, ptr %5, align 8, !tbaa !51
  call void @_ZSt8_DestroyIPN3zmq15socket_poller_t6item_tEEvT_S4_(ptr noundef %7, ptr noundef %8)
  ret void
}

; Function Attrs: mustprogress nounwind uwtable
define linkonce_odr noundef nonnull align 1 dereferenceable(1) ptr @_ZNSt12_Vector_baseIN3zmq15socket_poller_t6item_tESaIS2_EE19_M_get_Tp_allocatorEv(ptr noundef nonnull align 8 dereferenceable(24) %0) #1 comdat align 2 {
  %2 = alloca ptr, align 8
  store ptr %0, ptr %2, align 8, !tbaa !92
  %3 = load ptr, ptr %2, align 8
  %4 = getelementptr inbounds nuw %"struct.std::_Vector_base", ptr %3, i32 0, i32 0
  ret ptr %4
}

; Function Attrs: mustprogress nounwind uwtable
define linkonce_odr void @_ZNSt12_Vector_baseIN3zmq15socket_poller_t6item_tESaIS2_EEC2Ev(ptr noundef nonnull align 8 dereferenceable(24) %0) unnamed_addr #1 comdat align 2 {
  %2 = alloca ptr, align 8
  store ptr %0, ptr %2, align 8, !tbaa !92
  %3 = load ptr, ptr %2, align 8
  %4 = getelementptr inbounds nuw %"struct.std::_Vector_base", ptr %3, i32 0, i32 0
  call void @_ZNSt12_Vector_baseIN3zmq15socket_poller_t6item_tESaIS2_EE12_Vector_implC2Ev(ptr noundef nonnull align 8 dereferenceable(24) %4) #17
  ret void
}

; Function Attrs: mustprogress nounwind uwtable
define linkonce_odr void @_ZNSt6vectorIN3zmq15socket_poller_t6item_tESaIS2_EED2Ev(ptr noundef nonnull align 8 dereferenceable(24) %0) unnamed_addr #1 comdat align 2 personality ptr @__gxx_personality_v0 {
  %2 = alloca ptr, align 8
  store ptr %0, ptr %2, align 8, !tbaa !21
  %3 = load ptr, ptr %2, align 8
  %4 = getelementptr inbounds nuw %"struct.std::_Vector_base", ptr %3, i32 0, i32 0
  %5 = getelementptr inbounds nuw %"struct.std::_Vector_base<zmq::socket_poller_t::item_t, std::allocator<zmq::socket_poller_t::item_t>>::_Vector_impl_data", ptr %4, i32 0, i32 0
  %6 = load ptr, ptr %5, align 8, !tbaa !46
  %7 = getelementptr inbounds nuw %"struct.std::_Vector_base", ptr %3, i32 0, i32 0
  %8 = getelementptr inbounds nuw %"struct.std::_Vector_base<zmq::socket_poller_t::item_t, std::allocator<zmq::socket_poller_t::item_t>>::_Vector_impl_data", ptr %7, i32 0, i32 1
  %9 = load ptr, ptr %8, align 8, !tbaa !47
  %10 = call noundef nonnull align 1 dereferenceable(1) ptr @_ZNSt12_Vector_baseIN3zmq15socket_poller_t6item_tESaIS2_EE19_M_get_Tp_allocatorEv(ptr noundef nonnull align 8 dereferenceable(24) %3) #17
  invoke void @_ZSt8_DestroyIPN3zmq15socket_poller_t6item_tES2_EvT_S4_RSaIT0_E(ptr noundef %6, ptr noundef %9, ptr noundef nonnull align 1 dereferenceable(1) %10)
          to label %11 unwind label %12

11:                                               ; preds = %1
  call void @_ZNSt12_Vector_baseIN3zmq15socket_poller_t6item_tESaIS2_EED2Ev(ptr noundef nonnull align 8 dereferenceable(24) %3) #17
  ret void

12:                                               ; preds = %1
  %13 = landingpad { ptr, i32 }
          catch ptr null
  %14 = extractvalue { ptr, i32 } %13, 0
  call void @__clang_call_terminate(ptr %14) #20
  unreachable
}

; Function Attrs: mustprogress nounwind uwtable
define linkonce_odr void @_ZNSt6vectorIN3zmq15socket_poller_t6item_tESaIS2_EEC2Ev(ptr noundef nonnull align 8 dereferenceable(24) %0) unnamed_addr #1 comdat align 2 {
  %2 = alloca ptr, align 8
  store ptr %0, ptr %2, align 8, !tbaa !21
  %3 = load ptr, ptr %2, align 8
  call void @_ZNSt12_Vector_baseIN3zmq15socket_poller_t6item_tESaIS2_EEC2Ev(ptr noundef nonnull align 8 dereferenceable(24) %3) #17
  ret void
}

; Function Attrs: mustprogress uwtable
define void @_ZN3zmq15socket_poller_tC2Ev(ptr noundef nonnull align 8 dereferenceable(56) %0) unnamed_addr #0 align 2 personality ptr @__gxx_personality_v0 {
  %2 = alloca ptr, align 8
  %3 = alloca ptr, align 8
  %4 = alloca i32, align 4
  store ptr %0, ptr %2, align 8, !tbaa !3
  %5 = load ptr, ptr %2, align 8
  %6 = getelementptr inbounds nuw %"class.zmq::socket_poller_t", ptr %5, i32 0, i32 0
  store i32 -889275714, ptr %6, align 8, !tbaa !8
  %7 = getelementptr inbounds nuw %"class.zmq::socket_poller_t", ptr %5, i32 0, i32 1
  store ptr null, ptr %7, align 8, !tbaa !19
  %8 = getelementptr inbounds nuw %"class.zmq::socket_poller_t", ptr %5, i32 0, i32 2
  call void @_ZNSt6vectorIN3zmq15socket_poller_t6item_tESaIS2_EEC2Ev(ptr noundef nonnull align 8 dereferenceable(24) %8) #17
  %9 = getelementptr inbounds nuw %"class.zmq::socket_poller_t", ptr %5, i32 0, i32 6
  store ptr null, ptr %9, align 8, !tbaa !20
  %10 = invoke noundef i32 @_ZN3zmq15socket_poller_t7rebuildEv(ptr noundef nonnull align 8 dereferenceable(56) %5)
          to label %11 unwind label %12

11:                                               ; preds = %1
  ret void

12:                                               ; preds = %1
  %13 = landingpad { ptr, i32 }
          cleanup
  %14 = extractvalue { ptr, i32 } %13, 0
  store ptr %14, ptr %3, align 8
  %15 = extractvalue { ptr, i32 } %13, 1
  store i32 %15, ptr %4, align 4
  call void @_ZNSt6vectorIN3zmq15socket_poller_t6item_tESaIS2_EED2Ev(ptr noundef nonnull align 8 dereferenceable(24) %8) #17
  br label %16

16:                                               ; preds = %12
  %17 = load ptr, ptr %3, align 8
  %18 = load i32, ptr %4, align 4
  %19 = insertvalue { ptr, i32 } poison, ptr %17, 0
  %20 = insertvalue { ptr, i32 } %19, i32 %18, 1
  resume { ptr, i32 } %20
}