; Function Attrs: mustprogress uwtable
define void @_ZN3zmq15socket_poller_tC2Ev(ptr noundef nonnull align 8 captures(none) dereferenceable(56) initializes((0, 4), (8, 42), (44, 56)) %0) unnamed_addr #0 align 2 personality ptr @__gxx_personality_v0 {
  store i32 -889275714, ptr %0, align 8, !tbaa !3
  %2 = getelementptr inbounds nuw i8, ptr %0, i64 8
  %3 = getelementptr inbounds nuw i8, ptr %0, i64 48
  store ptr null, ptr %3, align 8, !tbaa !17
  tail call void @llvm.memset.p0.i64(ptr noundef nonnull align 8 dereferenceable(32) %2, i8 0, i64 32, i1 false)
  %4 = invoke noundef i32 @_ZN3zmq15socket_poller_t7rebuildEv(ptr noundef nonnull align 8 dereferenceable(56) %0)
          to label %5 unwind label %6

5:                                                ; preds = %1
  ret void

6:                                                ; preds = %1
  %7 = landingpad { ptr, i32 }
          cleanup
  %8 = getelementptr inbounds nuw i8, ptr %0, i64 16
  %9 = load ptr, ptr %8, align 8, !tbaa !18
  %.not.i.i.i = icmp eq ptr %9, null
  br i1 %.not.i.i.i, label %_ZNSt6vectorIN3zmq15socket_poller_t6item_tESaIS2_EED2Ev.exit, label %10

10:                                               ; preds = %6
  tail call void @_ZdlPv(ptr noundef nonnull %9) #23
  br label %_ZNSt6vectorIN3zmq15socket_poller_t6item_tESaIS2_EED2Ev.exit

_ZNSt6vectorIN3zmq15socket_poller_t6item_tESaIS2_EED2Ev.exit: ; preds = %6, %10
  resume { ptr, i32 } %7
}